; ModuleID = '55/172.c'
source_filename = "55/172.c"
target datalayout = "e-m:e-p270:32:32-p271:32:32-p272:64:64-i64:64-f80:128-n8:16:32:64-S128"
target triple = "x86_64-pc-linux-gnu"

@.str = private unnamed_addr constant [3 x i8] c"%d\00", align 1
@.str.1 = private unnamed_addr constant [3 x i8] c"%s\00", align 1
@.str.2 = private unnamed_addr constant [2 x i8] c"0\00", align 1
@.str.3 = private unnamed_addr constant [3 x i8] c"%c\00", align 1

; Function Attrs: noinline nounwind uwtable
define dso_local void @main() #0 {
  %1 = alloca i32, align 4
  %2 = alloca [100 x i8], align 16
  %3 = alloca [100 x i8], align 16
  %4 = alloca i32, align 4
  %5 = alloca i32, align 4
  %6 = alloca i32, align 4
  %7 = alloca i32, align 4
  %8 = alloca i32, align 4
  store i32 0, i32* %1, align 4
  %9 = call i32 (i8*, ...) @__isoc99_scanf(i8* getelementptr inbounds ([3 x i8], [3 x i8]* @.str, i64 0, i64 0), i32* %4)
  %10 = getelementptr inbounds [100 x i8], [100 x i8]* %2, i64 0, i64 0
  %11 = call i32 (i8*, ...) @__isoc99_scanf(i8* getelementptr inbounds ([3 x i8], [3 x i8]* @.str.1, i64 0, i64 0), i8* %10)
  %12 = call i32 (i8*, ...) @__isoc99_scanf(i8* getelementptr inbounds ([3 x i8], [3 x i8]* @.str, i64 0, i64 0), i32* %5)
  store i32 0, i32* %6, align 4
  br label %13

13:                                               ; preds = %71, %0
  %14 = load i32, i32* %6, align 4
  %15 = sext i32 %14 to i64
  %16 = getelementptr inbounds [100 x i8], [100 x i8]* %2, i64 0, i64 %15
  %17 = load i8, i8* %16, align 1
  %18 = sext i8 %17 to i32
  %19 = icmp ne i32 %18, 0
  br i1 %19, label %20, label %74

20:                                               ; preds = %13
  %21 = load i32, i32* %6, align 4
  %22 = sext i32 %21 to i64
  %23 = getelementptr inbounds [100 x i8], [100 x i8]* %2, i64 0, i64 %22
  %24 = load i8, i8* %23, align 1
  %25 = sext i8 %24 to i32
  %26 = icmp sgt i32 %25, 57
  br i1 %26, label %27, label %58

27:                                               ; preds = %20
  %28 = load i32, i32* %6, align 4
  %29 = sext i32 %28 to i64
  %30 = getelementptr inbounds [100 x i8], [100 x i8]* %2, i64 0, i64 %29
  %31 = load i8, i8* %30, align 1
  %32 = sext i8 %31 to i32
  %33 = icmp sge i32 %32, 97
  br i1 %33, label %34, label %49

34:                                               ; preds = %27
  %35 = load i32, i32* %6, align 4
  %36 = sext i32 %35 to i64
  %37 = getelementptr inbounds [100 x i8], [100 x i8]* %2, i64 0, i64 %36
  %38 = load i8, i8* %37, align 1
  %39 = sext i8 %38 to i32
  %40 = icmp sle i32 %39, 122
  br i1 %40, label %41, label %49

41:                                               ; preds = %34
  %42 = load i32, i32* %6, align 4
  %43 = sext i32 %42 to i64
  %44 = getelementptr inbounds [100 x i8], [100 x i8]* %2, i64 0, i64 %43
  %45 = load i8, i8* %44, align 1
  %46 = sext i8 %45 to i32
  %47 = sub nsw i32 %46, 97
  %48 = add nsw i32 %47, 10
  store i32 %48, i32* %8, align 4
  br label %57

49:                                               ; preds = %34, %27
  %50 = load i32, i32* %6, align 4
  %51 = sext i32 %50 to i64
  %52 = getelementptr inbounds [100 x i8], [100 x i8]* %2, i64 0, i64 %51
  %53 = load i8, i8* %52, align 1
  %54 = sext i8 %53 to i32
  %55 = sub nsw i32 %54, 65
  %56 = add nsw i32 %55, 10
  store i32 %56, i32* %8, align 4
  br label %57

57:                                               ; preds = %49, %41
  br label %65

58:                                               ; preds = %20
  %59 = load i32, i32* %6, align 4
  %60 = sext i32 %59 to i64
  %61 = getelementptr inbounds [100 x i8], [100 x i8]* %2, i64 0, i64 %60
  %62 = load i8, i8* %61, align 1
  %63 = sext i8 %62 to i32
  %64 = sub nsw i32 %63, 48
  store i32 %64, i32* %8, align 4
  br label %65

65:                                               ; preds = %58, %57
  %66 = load i32, i32* %4, align 4
  %67 = load i32, i32* %1, align 4
  %68 = mul nsw i32 %66, %67
  %69 = load i32, i32* %8, align 4
  %70 = add nsw i32 %68, %69
  store i32 %70, i32* %1, align 4
  br label %71

71:                                               ; preds = %65
  %72 = load i32, i32* %6, align 4
  %73 = add nsw i32 %72, 1
  store i32 %73, i32* %6, align 4
  br label %13

74:                                               ; preds = %13
  %75 = load i32, i32* %1, align 4
  %76 = icmp eq i32 %75, 0
  br i1 %76, label %77, label %79

77:                                               ; preds = %74
  %78 = call i32 (i8*, ...) @printf(i8* getelementptr inbounds ([2 x i8], [2 x i8]* @.str.2, i64 0, i64 0))
  br label %131

79:                                               ; preds = %74
  store i32 0, i32* %6, align 4
  br label %80

80:                                               ; preds = %111, %79
  %81 = load i32, i32* %1, align 4
  %82 = icmp ne i32 %81, 0
  br i1 %82, label %83, label %114

83:                                               ; preds = %80
  %84 = load i32, i32* %1, align 4
  %85 = load i32, i32* %5, align 4
  %86 = srem i32 %84, %85
  %87 = icmp sgt i32 %86, 9
  br i1 %87, label %88, label %98

88:                                               ; preds = %83
  %89 = load i32, i32* %1, align 4
  %90 = load i32, i32* %5, align 4
  %91 = srem i32 %89, %90
  %92 = sub nsw i32 %91, 10
  %93 = add nsw i32 %92, 65
  %94 = trunc i32 %93 to i8
  %95 = load i32, i32* %6, align 4
  %96 = sext i32 %95 to i64
  %97 = getelementptr inbounds [100 x i8], [100 x i8]* %3, i64 0, i64 %96
  store i8 %94, i8* %97, align 1
  br label %107

98:                                               ; preds = %83
  %99 = load i32, i32* %1, align 4
  %100 = load i32, i32* %5, align 4
  %101 = srem i32 %99, %100
  %102 = add nsw i32 %101, 48
  %103 = trunc i32 %102 to i8
  %104 = load i32, i32* %6, align 4
  %105 = sext i32 %104 to i64
  %106 = getelementptr inbounds [100 x i8], [100 x i8]* %3, i64 0, i64 %105
  store i8 %103, i8* %106, align 1
  br label %107

107:                                              ; preds = %98, %88
  %108 = load i32, i32* %1, align 4
  %109 = load i32, i32* %5, align 4
  %110 = sdiv i32 %108, %109
  store i32 %110, i32* %1, align 4
  br label %111

111:                                              ; preds = %107
  %112 = load i32, i32* %6, align 4
  %113 = add nsw i32 %112, 1
  store i32 %113, i32* %6, align 4
  br label %80

114:                                              ; preds = %80
  %115 = load i32, i32* %6, align 4
  %116 = sub nsw i32 %115, 1
  store i32 %116, i32* %7, align 4
  br label %117

117:                                              ; preds = %127, %114
  %118 = load i32, i32* %7, align 4
  %119 = icmp sge i32 %118, 0
  br i1 %119, label %120, label %130

120:                                              ; preds = %117
  %121 = load i32, i32* %7, align 4
  %122 = sext i32 %121 to i64
  %123 = getelementptr inbounds [100 x i8], [100 x i8]* %3, i64 0, i64 %122
  %124 = load i8, i8* %123, align 1
  %125 = sext i8 %124 to i32
  %126 = call i32 (i8*, ...) @printf(i8* getelementptr inbounds ([3 x i8], [3 x i8]* @.str.3, i64 0, i64 0), i32 %125)
  br label %127

127:                                              ; preds = %120
  %128 = load i32, i32* %7, align 4
  %129 = add nsw i32 %128, -1
  store i32 %129, i32* %7, align 4
  br label %117

130:                                              ; preds = %117
  br label %131

131:                                              ; preds = %130, %77
  ret void
}

declare dso_local i32 @__isoc99_scanf(i8*, ...) #1

declare dso_local i32 @printf(i8*, ...) #1


!llvm.module.flags = !{!0}
!llvm.ident = !{!1}

!0 = !{i32 1, !"wchar_size", i32 4}
!1 = !{!"clang version 10.0.0-4ubuntu1 "}
